Certificate:
    Data:
        Version: 3 (0x2)
        Serial Number: 1 (0x1)
    Signature Algorithm: sha256WithRSAEncryption
        Issuer: CN=agrion.openair4G.eur, C=FR, ST=PACA, L=Aix, O=Eurecom, OU=CM
        Validity
            Not Before: Jun 22 16:49:27 2019 GMT
            Not After : Jun 21 16:49:27 2020 GMT
        Subject: C=FR, ST=PACA, O=Eurecom, OU=CM, CN=agrion.openair4G.eur
        Subject Public Key Info:
            Public Key Algorithm: rsaEncryption
                Public-Key: (1024 bit)
                Modulus:
                    00:a1:4e:2c:9e:0a:23:a5:e5:d3:ba:d0:ee:56:a2:
                    38:1d:c0:3d:b0:68:d5:50:54:2b:8f:34:8f:ff:71:
                    5f:07:fb:38:63:af:5c:97:73:a0:df:50:b2:e3:86:
                    bb:47:32:f0:c5:6f:72:50:11:42:d4:6f:e2:96:a4:
                    9b:e3:3e:a8:b8:16:f9:c5:20:f7:34:a8:7e:ec:6a:
                    fe:d3:3c:b6:ab:41:01:ed:79:e9:dd:53:7e:fe:66:
                    05:7e:58:08:0c:9d:f2:63:22:a5:90:8a:01:89:55:
                    37:a0:af:50:5c:9b:db:b3:d9:26:19:3a:18:f8:7c:
                    f6:04:8a:48:16:c4:0e:d1:43
                Exponent: 65537 (0x10001)
        X509v3 extensions:
            X509v3 Basic Constraints: 
                CA:FALSE
            Netscape Comment: 
                OpenSSL Generated Certificate
            X509v3 Subject Key Identifier: 
                7B:4F:12:3B:21:41:5D:28:F7:27:11:45:A4:D0:36:C9:55:3B:F5:57
            X509v3 Authority Key Identifier: 
                keyid:11:6A:D4:D0:95:21:E5:16:E9:6A:81:31:04:BC:94:AF:D9:7B:7E:A0

    Signature Algorithm: sha256WithRSAEncryption
         91:34:77:7d:df:bd:4b:40:30:8e:8e:93:d3:f6:5f:d3:08:16:
         e3:3b:14:5c:da:f3:0d:4e:99:1f:52:ef:75:91:a3:6b:6d:a9:
         20:ac:18:3d:5f:80:b5:29:21:ce:5a:e3:a1:c0:0b:10:50:43:
         b2:59:5f:38:5c:e8:35:d2:17:2b:7a:57:2d:c2:e4:a2:a6:2d:
         10:30:dd:46:07:61:cc:7c:a4:7d:77:97:b2:de:1f:9d:3c:f6:
         df:54:b6:65:66:f6:02:dd:38:b3:42:31:91:3c:a6:f2:23:27:
         73:aa:58:65:86:02:da:7f:36:de:54:27:94:c3:fa:44:53:3e:
         46:97
-----BEGIN CERTIFICATE-----
MIICszCCAhygAwIBAgIBATANBgkqhkiG9w0BAQsFADBoMR0wGwYDVQQDDBRhZ3Jp
b24ub3BlbmFpcjRHLmV1cjELMAkGA1UEBhMCRlIxDTALBgNVBAgMBFBBQ0ExDDAK
BgNVBAcMA0FpeDEQMA4GA1UECgwHRXVyZWNvbTELMAkGA1UECwwCQ00wHhcNMTkw
NjIyMTY0OTI3WhcNMjAwNjIxMTY0OTI3WjBaMQswCQYDVQQGEwJGUjENMAsGA1UE
CAwEUEFDQTEQMA4GA1UECgwHRXVyZWNvbTELMAkGA1UECwwCQ00xHTAbBgNVBAMM
FGFncmlvbi5vcGVuYWlyNEcuZXVyMIGfMA0GCSqGSIb3DQEBAQUAA4GNADCBiQKB
gQChTiyeCiOl5dO60O5WojgdwD2waNVQVCuPNI//cV8H+zhjr1yXc6DfULLjhrtH
MvDFb3JQEULUb+KWpJvjPqi4FvnFIPc0qH7sav7TPLarQQHteendU37+ZgV+WAgM
nfJjIqWQigGJVTegr1Bcm9uz2SYZOhj4fPYEikgWxA7RQwIDAQABo3sweTAJBgNV
HRMEAjAAMCwGCWCGSAGG+EIBDQQfFh1PcGVuU1NMIEdlbmVyYXRlZCBDZXJ0aWZp
Y2F0ZTAdBgNVHQ4EFgQUe08SOyFBXSj3JxFFpNA2yVU79VcwHwYDVR0jBBgwFoAU
EWrU0JUh5RbpaoExBLyUr9l7fqAwDQYJKoZIhvcNAQELBQADgYEAkTR3fd+9S0Aw
jo6T0/Zf0wgW4zsUXNrzDU6ZH1LvdZGja22pIKwYPV+AtSkhzlrjocALEFBDsllf
OFzoNdIXK3pXLcLkoqYtEDDdRgdhzHykfXeXst4fnTz231S2ZWb2At04s0IxkTym
8iMnc6pYZYYC2n823lQnlMP6RFM+Rpc=
-----END CERTIFICATE-----
