Certificate:
    Data:
        Version: 3 (0x2)
        Serial Number: 1 (0x1)
    Signature Algorithm: sha256WithRSAEncryption
        Issuer: CN=agrion.openair4G.eur, C=FR, ST=PACA, L=Aix, O=Eurecom, OU=CM
        Validity
            Not Before: Jun 19 12:51:19 2019 GMT
            Not After : Jun 18 12:51:19 2020 GMT
        Subject: C=FR, ST=PACA, O=Eurecom, OU=CM, CN=agrion.openair4G.eur
        Subject Public Key Info:
            Public Key Algorithm: rsaEncryption
                Public-Key: (1024 bit)
                Modulus:
                    00:ab:3c:5f:de:be:cc:02:6c:2e:04:33:ba:8d:c3:
                    4e:d1:02:87:4c:6d:fe:8f:09:82:18:f3:bc:cf:10:
                    ae:e0:b3:f0:cb:6f:09:42:79:d3:0c:ce:27:a4:af:
                    ad:f9:2e:27:74:17:91:fb:c9:15:34:bb:18:d7:5f:
                    2f:11:7f:79:2c:cd:db:36:a1:a7:23:61:8f:de:43:
                    dd:0a:b9:a0:6d:32:ac:ca:39:de:e0:0b:3c:2f:a3:
                    7c:76:3a:b4:96:8d:81:be:42:6f:c9:20:b7:23:96:
                    9a:99:11:62:b7:13:b7:84:ac:62:10:70:4e:99:2b:
                    d0:b5:be:c9:41:15:ab:54:15
                Exponent: 65537 (0x10001)
        X509v3 extensions:
            X509v3 Basic Constraints: 
                CA:FALSE
            Netscape Comment: 
                OpenSSL Generated Certificate
            X509v3 Subject Key Identifier: 
                B0:67:B3:6F:8E:FF:57:A3:B3:ED:C6:28:76:C0:21:5F:66:D5:B5:94
            X509v3 Authority Key Identifier: 
                keyid:79:C9:38:6E:2C:1A:0A:A1:F7:CF:93:00:00:F4:E2:F5:FF:26:09:58

    Signature Algorithm: sha256WithRSAEncryption
         3c:48:0f:7f:95:04:b5:c8:35:11:2f:5e:14:15:f7:60:bf:ec:
         c7:95:28:db:db:b3:83:87:d0:3e:de:32:85:94:83:84:f6:6d:
         c9:18:fa:3d:90:48:5a:da:6b:8d:88:ed:a6:82:f9:0d:19:0e:
         68:27:0b:fc:fe:0f:82:79:8c:d6:a1:c5:a1:5d:f9:63:b6:87:
         4e:e4:16:2d:ed:1e:87:e8:23:c2:92:be:9e:14:2d:1b:24:7b:
         c1:6e:2e:af:81:f1:67:b6:84:f7:7d:db:23:cf:76:8e:2c:0b:
         17:09:19:ea:1b:fb:1c:92:2b:6b:e1:a3:f7:51:32:70:49:88:
         83:a7
-----BEGIN CERTIFICATE-----
MIICszCCAhygAwIBAgIBATANBgkqhkiG9w0BAQsFADBoMR0wGwYDVQQDDBRhZ3Jp
b24ub3BlbmFpcjRHLmV1cjELMAkGA1UEBhMCRlIxDTALBgNVBAgMBFBBQ0ExDDAK
BgNVBAcMA0FpeDEQMA4GA1UECgwHRXVyZWNvbTELMAkGA1UECwwCQ00wHhcNMTkw
NjE5MTI1MTE5WhcNMjAwNjE4MTI1MTE5WjBaMQswCQYDVQQGEwJGUjENMAsGA1UE
CAwEUEFDQTEQMA4GA1UECgwHRXVyZWNvbTELMAkGA1UECwwCQ00xHTAbBgNVBAMM
FGFncmlvbi5vcGVuYWlyNEcuZXVyMIGfMA0GCSqGSIb3DQEBAQUAA4GNADCBiQKB
gQCrPF/evswCbC4EM7qNw07RAodMbf6PCYIY87zPEK7gs/DLbwlCedMMziekr635
Lid0F5H7yRU0uxjXXy8Rf3kszds2oacjYY/eQ90KuaBtMqzKOd7gCzwvo3x2OrSW
jYG+Qm/JILcjlpqZEWK3E7eErGIQcE6ZK9C1vslBFatUFQIDAQABo3sweTAJBgNV
HRMEAjAAMCwGCWCGSAGG+EIBDQQfFh1PcGVuU1NMIEdlbmVyYXRlZCBDZXJ0aWZp
Y2F0ZTAdBgNVHQ4EFgQUsGezb47/V6Oz7cYodsAhX2bVtZQwHwYDVR0jBBgwFoAU
eck4biwaCqH3z5MAAPTi9f8mCVgwDQYJKoZIhvcNAQELBQADgYEAPEgPf5UEtcg1
ES9eFBX3YL/sx5Uo29uzg4fQPt4yhZSDhPZtyRj6PZBIWtprjYjtpoL5DRkOaCcL
/P4PgnmM1qHFoV35Y7aHTuQWLe0eh+gjwpK+nhQtGyR7wW4ur4HxZ7aE933bI892
jiwLFwkZ6hv7HJIra+Gj91EycEmIg6c=
-----END CERTIFICATE-----
